target datalayout = "e-m:e-p270:32:32-p271:32:32-p272:64:64-i64:64-i128:128-f80:128-n8:16:32:64-S128"
target triple = "x86_64-pc-linux-gnu"

%struct.bitstream = type { i64, i64, ptr, ptr, ptr }

; Function Attrs: nounwind uwtable
define void @stream_wseek(ptr noundef %0, i64 noundef %1) #0 {
  %3 = alloca ptr, align 8
  %4 = alloca i64, align 8
  %5 = alloca i64, align 8
  %6 = alloca i64, align 8
  store ptr %0, ptr %3, align 8
  store i64 %1, ptr %4, align 8
  %7 = load i64, ptr %4, align 8
  %8 = urem i64 %7, 64
  store i64 %8, ptr %5, align 8
  %9 = load ptr, ptr %3, align 8
  %10 = getelementptr inbounds %struct.bitstream, ptr %9, i32 0, i32 3
  %11 = load ptr, ptr %10, align 8
  %12 = load i64, ptr %4, align 8
  %13 = udiv i64 %12, 64
  %14 = getelementptr inbounds i64, ptr %11, i64 %13
  %15 = load ptr, ptr %3, align 8
  %16 = getelementptr inbounds %struct.bitstream, ptr %15, i32 0, i32 2
  store ptr %14, ptr %16, align 8
  %17 = load i64, ptr %5, align 8
  %18 = icmp ne i64 %17, 0
  br i1 %18, label %19, label %35

19:                                               ; preds = %2
  %20 = load ptr, ptr %3, align 8
  %21 = getelementptr inbounds %struct.bitstream, ptr %20, i32 0, i32 2
  %22 = load ptr, ptr %21, align 8
  %23 = load i64, ptr %22, align 8
  store i64 %23, ptr %6, align 8
  %24 = load i64, ptr %5, align 8
  %25 = shl i64 1, %24
  %26 = sub i64 %25, 1
  %27 = load i64, ptr %6, align 8
  %28 = and i64 %27, %26
  store i64 %28, ptr %6, align 8
  %29 = load i64, ptr %6, align 8
  %30 = load ptr, ptr %3, align 8
  %31 = getelementptr inbounds %struct.bitstream, ptr %30, i32 0, i32 1
  store i64 %29, ptr %31, align 8
  %32 = load i64, ptr %5, align 8
  %33 = load ptr, ptr %3, align 8
  %34 = getelementptr inbounds %struct.bitstream, ptr %33, i32 0, i32 0
  store i64 %32, ptr %34, align 8
  br label %40

35:                                               ; preds = %2
  %36 = load ptr, ptr %3, align 8
  %37 = getelementptr inbounds %struct.bitstream, ptr %36, i32 0, i32 1
  store i64 0, ptr %37, align 8
  %38 = load ptr, ptr %3, align 8
  %39 = getelementptr inbounds %struct.bitstream, ptr %38, i32 0, i32 0
  store i64 0, ptr %39, align 8
  br label %40

40:                                               ; preds = %35, %19
  ret void
}