; Function Attrs: mustprogress nofree norecurse nosync nounwind willreturn memory(read, argmem: readwrite, inaccessiblemem: none) uwtable
define void @stream_wseek(ptr noundef captures(none) initializes((0, 24)) %0, i64 noundef %1) local_unnamed_addr #2 {
  %3 = and i64 %1, 63
  %4 = getelementptr inbounds nuw i8, ptr %0, i64 24
  %5 = load ptr, ptr %4, align 8
  %6 = lshr i64 %1, 6
  %7 = getelementptr inbounds nuw i64, ptr %5, i64 %6
  %8 = getelementptr inbounds nuw i8, ptr %0, i64 16
  store ptr %7, ptr %8, align 8
  %.not = icmp eq i64 %3, 0
  br i1 %.not, label %13, label %9

9:                                                ; preds = %2
  %10 = load i64, ptr %7, align 8
  %notmask = shl nsw i64 -1, %3
  %11 = xor i64 %notmask, -1
  %12 = and i64 %10, %11
  br label %13

13:                                               ; preds = %2, %9
  %.sink = phi i64 [ %12, %9 ], [ 0, %2 ]
  %14 = getelementptr inbounds nuw i8, ptr %0, i64 8
  store i64 %.sink, ptr %14, align 8
  store i64 %3, ptr %0, align 8
  ret void
}